target datalayout = "e-m:e-p270:32:32-p271:32:32-p272:64:64-i64:64-i128:128-f80:128-n8:16:32:64-S128"
target triple = "x86_64-unknown-linux-gnu"

%struct.BlockLimits = type { i32, i64, i32, i64, i32, i32, i32, i64, i32, i64, i64, i32, i8, i32, i32, i32, i32, i32, i32, i32 }
%struct.BlockDriverState = type { i32, i8, i8, i8, i8, i8, ptr, ptr, ptr, %struct.anon.1, i8, [4096 x i8], [4096 x i8], [4096 x i8], [16 x i8], ptr, [4096 x i8], %struct.BlockLimits, i32, i32, i32, i32, [32 x i8], %union.anon, %union.anon.2, %union.anon.3, i32, [16 x %struct.anon.4], ptr, %struct.anon.5, ptr, ptr, %struct.anon.6, ptr, ptr, i32, ptr, i64, i64, %struct.QemuMutex, %struct.anon.7, %struct.Stat64, i32, i32, i32, i32, i32, i32, %struct.QemuMutex, %struct.anon.8, %struct.CoQueue, i8, i32, i8, %struct.CoMutex, ptr, ptr }
%struct.anon.1 = type { ptr }
%union.anon = type { %struct.QTailQLink }
%struct.QTailQLink = type { ptr, ptr }
%union.anon.2 = type { %struct.QTailQLink }
%union.anon.3 = type { %struct.QTailQLink }
%struct.anon.4 = type { ptr }
%struct.anon.5 = type { ptr }
%struct.anon.6 = type { ptr }
%struct.anon.7 = type { ptr }
%struct.Stat64 = type { i64 }
%struct.QemuMutex = type { %union.pthread_mutex_t, i8 }
%union.pthread_mutex_t = type { %struct.__pthread_mutex_s }
%struct.__pthread_mutex_s = type { i32, i32, i32, i32, i32, i16, i16, %struct.__pthread_internal_list }
%struct.__pthread_internal_list = type { ptr, ptr }
%struct.anon.8 = type { ptr }
%struct.CoQueue = type { %struct.anon.9 }
%struct.anon.9 = type { ptr, ptr }
%struct.CoMutex = type { i32, ptr, %struct.anon.10, %struct.anon.10, i32, i32, ptr }
%struct.anon.10 = type { ptr }
%struct.BdrvCoDrainData = type { ptr, ptr, i8, i8, i8, ptr }

@.str.1 = private unnamed_addr constant [19 x i8] c"../qemu/block/io.c\00", align 1
@.str.39 = private unnamed_addr constant [20 x i8] c"qemu_in_coroutine()\00", align 1
@__PRETTY_FUNCTION__.bdrv_co_yield_to_drain = private unnamed_addr constant [75 x i8] c"void bdrv_co_yield_to_drain(BlockDriverState *, _Bool, BdrvChild *, _Bool)\00", align 1
@.str.40 = private unnamed_addr constant [10 x i8] c"data.done\00", align 1

; Function Attrs: nounwind sspstrong uwtable
define dso_local void @bdrv_inc_in_flight(ptr noundef %bs) #0 {
entry:
  %bs.addr = alloca ptr, align 8
  %.atomictmp = alloca i32, align 4
  %atomic-temp = alloca i32, align 4
  store ptr %bs, ptr %bs.addr, align 8
  br label %do.body

do.body:                                          ; preds = %entry
  br label %do.end

do.end:                                           ; preds = %do.body
  %0 = load ptr, ptr %bs.addr, align 8
  %in_flight = getelementptr inbounds %struct.BlockDriverState, ptr %0, i32 0, i32 43
  store i32 1, ptr %.atomictmp, align 4
  %1 = load i32, ptr %.atomictmp, align 4
  %2 = atomicrmw add ptr %in_flight, i32 %1 seq_cst, align 4
  store i32 %2, ptr %atomic-temp, align 4
  ret void
}

; Function Attrs: nounwind sspstrong uwtable
define internal void @bdrv_co_yield_to_drain(ptr noundef %bs, i1 noundef zeroext %begin, ptr noundef %parent, i1 noundef zeroext %poll) #0 {
entry:
  %bs.addr = alloca ptr, align 8
  %begin.addr = alloca i8, align 1
  %parent.addr = alloca ptr, align 8
  %poll.addr = alloca i8, align 1
  %data = alloca %struct.BdrvCoDrainData, align 8
  %self = alloca ptr, align 8
  %ctx = alloca ptr, align 8
  %co_ctx = alloca ptr, align 8
  %.compoundliteral = alloca %struct.BdrvCoDrainData, align 8
  store ptr %bs, ptr %bs.addr, align 8
  %frombool = zext i1 %begin to i8
  store i8 %frombool, ptr %begin.addr, align 1
  store ptr %parent, ptr %parent.addr, align 8
  %frombool1 = zext i1 %poll to i8
  store i8 %frombool1, ptr %poll.addr, align 1
  %call = call ptr @qemu_coroutine_self()
  store ptr %call, ptr %self, align 8
  %0 = load ptr, ptr %bs.addr, align 8
  %call2 = call ptr @bdrv_get_aio_context(ptr noundef %0)
  store ptr %call2, ptr %ctx, align 8
  %1 = load ptr, ptr %self, align 8
  %call3 = call ptr @qemu_coroutine_get_aio_context(ptr noundef %1)
  store ptr %call3, ptr %co_ctx, align 8
  %call4 = call zeroext i1 @qemu_in_coroutine()
  br i1 %call4, label %if.then, label %if.else

if.then:                                          ; preds = %entry
  br label %if.end

if.else:                                          ; preds = %entry
  call void @__assert_fail(ptr noundef @.str.39, ptr noundef @.str.1, i32 noundef 329, ptr noundef @__PRETTY_FUNCTION__.bdrv_co_yield_to_drain) #10
  unreachable

if.end:                                           ; preds = %if.then
  %co = getelementptr inbounds %struct.BdrvCoDrainData, ptr %.compoundliteral, i32 0, i32 0
  %2 = load ptr, ptr %self, align 8
  store ptr %2, ptr %co, align 8
  %bs5 = getelementptr inbounds %struct.BdrvCoDrainData, ptr %.compoundliteral, i32 0, i32 1
  %3 = load ptr, ptr %bs.addr, align 8
  store ptr %3, ptr %bs5, align 8
  %done = getelementptr inbounds %struct.BdrvCoDrainData, ptr %.compoundliteral, i32 0, i32 2
  store i8 0, ptr %done, align 8
  %begin6 = getelementptr inbounds %struct.BdrvCoDrainData, ptr %.compoundliteral, i32 0, i32 3
  %4 = load i8, ptr %begin.addr, align 1
  %tobool = trunc i8 %4 to i1
  %frombool7 = zext i1 %tobool to i8
  store i8 %frombool7, ptr %begin6, align 1
  %poll8 = getelementptr inbounds %struct.BdrvCoDrainData, ptr %.compoundliteral, i32 0, i32 4
  %5 = load i8, ptr %poll.addr, align 1
  %tobool9 = trunc i8 %5 to i1
  %frombool10 = zext i1 %tobool9 to i8
  store i8 %frombool10, ptr %poll8, align 2
  %parent11 = getelementptr inbounds %struct.BdrvCoDrainData, ptr %.compoundliteral, i32 0, i32 5
  %6 = load ptr, ptr %parent.addr, align 8
  store ptr %6, ptr %parent11, align 8
  call void @llvm.memcpy.p0.p0.i64(ptr align 8 %data, ptr align 8 %.compoundliteral, i64 32, i1 false)
  %7 = load ptr, ptr %bs.addr, align 8
  %tobool12 = icmp ne ptr %7, null
  br i1 %tobool12, label %if.then13, label %if.end14

if.then13:                                        ; preds = %if.end
  %8 = load ptr, ptr %bs.addr, align 8
  call void @bdrv_inc_in_flight(ptr noundef %8)
  br label %if.end14

if.end14:                                         ; preds = %if.then13, %if.end
  %9 = load ptr, ptr %ctx, align 8
  %10 = load ptr, ptr %co_ctx, align 8
  %cmp = icmp ne ptr %9, %10
  br i1 %cmp, label %if.then15, label %if.end16

if.then15:                                        ; preds = %if.end14
  %11 = load ptr, ptr %ctx, align 8
  call void @aio_context_release(ptr noundef %11)
  br label %if.end16

if.end16:                                         ; preds = %if.then15, %if.end14
  %call17 = call ptr @qemu_get_aio_context()
  call void @replay_bh_schedule_oneshot_event(ptr noundef %call17, ptr noundef @bdrv_co_drain_bh_cb, ptr noundef %data)
  call void @qemu_coroutine_yield()
  %done18 = getelementptr inbounds %struct.BdrvCoDrainData, ptr %data, i32 0, i32 2
  %12 = load i8, ptr %done18, align 8
  %tobool19 = trunc i8 %12 to i1
  br i1 %tobool19, label %if.then20, label %if.else21

if.then20:                                        ; preds = %if.end16
  br label %if.end22

if.else21:                                        ; preds = %if.end16
  call void @__assert_fail(ptr noundef @.str.40, ptr noundef @.str.1, i32 noundef 360, ptr noundef @__PRETTY_FUNCTION__.bdrv_co_yield_to_drain) #10
  unreachable

if.end22:                                         ; preds = %if.then20
  %13 = load ptr, ptr %ctx, align 8
  %14 = load ptr, ptr %co_ctx, align 8
  %cmp23 = icmp ne ptr %13, %14
  br i1 %cmp23, label %if.then24, label %if.end25

if.then24:                                        ; preds = %if.end22
  %15 = load ptr, ptr %ctx, align 8
  call void @aio_context_acquire(ptr noundef %15)
  br label %if.end25

if.end25:                                         ; preds = %if.then24, %if.end22
  ret void
}