; Function Attrs: nounwind sspstrong uwtable
define internal void @bdrv_co_yield_to_drain(ptr noundef %bs, i1 noundef zeroext %begin, ptr noundef %parent, i1 noundef zeroext %poll) #0 {
entry:
  %data = alloca %struct.BdrvCoDrainData, align 8
  %call = tail call ptr @qemu_coroutine_self() #15
  %call2 = tail call ptr @bdrv_get_aio_context(ptr noundef %bs) #15
  %call3 = tail call ptr @qemu_coroutine_get_aio_context(ptr noundef %call) #15
  %call4 = tail call zeroext i1 @qemu_in_coroutine() #15
  br i1 %call4, label %if.end, label %if.else

if.else:                                          ; preds = %entry
  tail call void @__assert_fail(ptr noundef nonnull @.str.39, ptr noundef nonnull @.str.1, i32 noundef 329, ptr noundef nonnull @__PRETTY_FUNCTION__.bdrv_co_yield_to_drain) #16
  unreachable

if.end:                                           ; preds = %entry
  %frombool1 = zext i1 %poll to i8
  %frombool = zext i1 %begin to i8
  store ptr %call, ptr %data, align 8
  %.compoundliteral.sroa.2.0.data.sroa_idx = getelementptr inbounds nuw i8, ptr %data, i64 8
  store ptr %bs, ptr %.compoundliteral.sroa.2.0.data.sroa_idx, align 8
  %.compoundliteral.sroa.3.0.data.sroa_idx = getelementptr inbounds nuw i8, ptr %data, i64 16
  store i8 0, ptr %.compoundliteral.sroa.3.0.data.sroa_idx, align 8
  %.compoundliteral.sroa.4.0.data.sroa_idx = getelementptr inbounds nuw i8, ptr %data, i64 17
  store i8 %frombool, ptr %.compoundliteral.sroa.4.0.data.sroa_idx, align 1
  %.compoundliteral.sroa.5.0.data.sroa_idx = getelementptr inbounds nuw i8, ptr %data, i64 18
  store i8 %frombool1, ptr %.compoundliteral.sroa.5.0.data.sroa_idx, align 2
  %.compoundliteral.sroa.61.0.data.sroa_idx = getelementptr inbounds nuw i8, ptr %data, i64 24
  store ptr %parent, ptr %.compoundliteral.sroa.61.0.data.sroa_idx, align 8
  %tobool12.not = icmp eq ptr %bs, null
  br i1 %tobool12.not, label %if.end14, label %if.then13

if.then13:                                        ; preds = %if.end
  %in_flight.i = getelementptr inbounds nuw i8, ptr %bs, i64 16972
  %0 = atomicrmw add ptr %in_flight.i, i32 1 seq_cst, align 4
  br label %if.end14

if.end14:                                         ; preds = %if.then13, %if.end
  %cmp.not = icmp eq ptr %call2, %call3
  br i1 %cmp.not, label %if.end16, label %if.then15

if.then15:                                        ; preds = %if.end14
  tail call void @aio_context_release(ptr noundef %call2) #15
  br label %if.end16

if.end16:                                         ; preds = %if.then15, %if.end14
  %call17 = tail call ptr @qemu_get_aio_context() #15
  call void @replay_bh_schedule_oneshot_event(ptr noundef %call17, ptr noundef nonnull @bdrv_co_drain_bh_cb, ptr noundef nonnull %data) #15
  call void @qemu_coroutine_yield() #15
  %1 = load i8, ptr %.compoundliteral.sroa.3.0.data.sroa_idx, align 8
  %tobool19 = trunc i8 %1 to i1
  br i1 %tobool19, label %if.end22, label %if.else21

if.else21:                                        ; preds = %if.end16
  call void @__assert_fail(ptr noundef nonnull @.str.40, ptr noundef nonnull @.str.1, i32 noundef 360, ptr noundef nonnull @__PRETTY_FUNCTION__.bdrv_co_yield_to_drain) #16
  unreachable

if.end22:                                         ; preds = %if.end16
  br i1 %cmp.not, label %if.end25, label %if.then24

if.then24:                                        ; preds = %if.end22
  call void @aio_context_acquire(ptr noundef %call2) #15
  br label %if.end25

if.end25:                                         ; preds = %if.then24, %if.end22
  ret void
}